; Function Attrs: inlinehint mustprogress nounwind willreturn uwtable
define internal fastcc void @Cba_NtkSetMap2(ptr captures(none) %.0.val, i32 noundef %0, i32 noundef range(i32 -2147483647, -2147483648) %1) unnamed_addr #5 {
  %3 = getelementptr inbounds nuw i8, ptr %.0.val, i64 64
  %4 = add nsw i32 %0, 1
  %5 = getelementptr inbounds nuw i8, ptr %.0.val, i64 68
  %6 = load i32, ptr %5, align 4, !tbaa !28
  %.not.i.not.i.i = icmp slt i32 %0, %6
  br i1 %.not.i.not.i.i, label %Vec_IntSetEntry.exit.i, label %7

7:                                                ; preds = %2
  %8 = load i32, ptr %3, align 8, !tbaa !26
  %9 = shl nsw i32 %8, 1
  %.not.i.i = icmp slt i32 %0, %9
  %.not.i.i.not.i.i = icmp sgt i32 %8, %0
  br i1 %.not.i.i, label %22, label %10

10:                                               ; preds = %7
  br i1 %.not.i.i.not.i.i, label %Vec_IntGrow.exit.i.i.i, label %11

11:                                               ; preds = %10
  %12 = getelementptr inbounds nuw i8, ptr %.0.val, i64 72
  %13 = load ptr, ptr %12, align 8, !tbaa !27
  %.not9.i.i.i.i = icmp eq ptr %13, null
  %14 = sext i32 %4 to i64
  %15 = shl nsw i64 %14, 2
  br i1 %.not9.i.i.i.i, label %18, label %16

16:                                               ; preds = %11
  %17 = tail call ptr @realloc(ptr noundef nonnull %13, i64 noundef %15) #22
  br label %20

18:                                               ; preds = %11
  %19 = tail call noalias ptr @malloc(i64 noundef %15) #20
  br label %20

20:                                               ; preds = %18, %16
  %21 = phi ptr [ %17, %16 ], [ %19, %18 ]
  store ptr %21, ptr %12, align 8, !tbaa !27
  br label %Vec_IntGrow.exit.sink.split.i.i.i

22:                                               ; preds = %7
  br i1 %.not.i.i.not.i.i, label %Vec_IntGrow.exit.i.i.i, label %23

23:                                               ; preds = %22
  %24 = getelementptr inbounds nuw i8, ptr %.0.val, i64 72
  %25 = load ptr, ptr %24, align 8, !tbaa !27
  %.not9.i21.i.i.i = icmp eq ptr %25, null
  %26 = sext i32 %9 to i64
  %27 = shl nsw i64 %26, 2
  br i1 %.not9.i21.i.i.i, label %30, label %28

28:                                               ; preds = %23
  %29 = tail call ptr @realloc(ptr noundef nonnull %25, i64 noundef %27) #22
  br label %32

30:                                               ; preds = %23
  %31 = tail call noalias ptr @malloc(i64 noundef %27) #20
  br label %32

32:                                               ; preds = %30, %28
  %33 = phi ptr [ %29, %28 ], [ %31, %30 ]
  store ptr %33, ptr %24, align 8, !tbaa !27
  br label %Vec_IntGrow.exit.sink.split.i.i.i

Vec_IntGrow.exit.sink.split.i.i.i:                ; preds = %32, %20
  %.sink.i.i.i = phi i32 [ %9, %32 ], [ %4, %20 ]
  store i32 %.sink.i.i.i, ptr %3, align 8, !tbaa !26
  %.pre.i.i = load i32, ptr %5, align 4, !tbaa !28
  br label %Vec_IntGrow.exit.i.i.i

Vec_IntGrow.exit.i.i.i:                           ; preds = %Vec_IntGrow.exit.sink.split.i.i.i, %22, %10
  %34 = phi i32 [ %.pre.i.i, %Vec_IntGrow.exit.sink.split.i.i.i ], [ %6, %22 ], [ %6, %10 ]
  %.not4.i.i = icmp sgt i32 %34, %0
  br i1 %.not4.i.i, label %._crit_edge.i.i.i, label %.lr.ph.i.i.i

.lr.ph.i.i.i:                                     ; preds = %Vec_IntGrow.exit.i.i.i
  %35 = getelementptr inbounds nuw i8, ptr %.0.val, i64 72
  %36 = load ptr, ptr %35, align 8, !tbaa !27
  %37 = sext i32 %34 to i64
  %38 = shl nsw i64 %37, 2
  %scevgep.i.i.i = getelementptr i8, ptr %36, i64 %38
  %39 = sub i32 %0, %34
  %40 = zext i32 %39 to i64
  %41 = shl nuw nsw i64 %40, 2
  %42 = add nuw nsw i64 %41, 4
  tail call void @llvm.memset.p0.i64(ptr noundef nonnull align 4 dereferenceable(1) %scevgep.i.i.i, i8 0, i64 %42, i1 false), !tbaa !33
  br label %._crit_edge.i.i.i

._crit_edge.i.i.i:                                ; preds = %.lr.ph.i.i.i, %Vec_IntGrow.exit.i.i.i
  store i32 %4, ptr %5, align 4, !tbaa !28
  br label %Vec_IntSetEntry.exit.i

Vec_IntSetEntry.exit.i:                           ; preds = %._crit_edge.i.i.i, %2
  %43 = getelementptr i8, ptr %.0.val, i64 72
  %.val.i.i = load ptr, ptr %43, align 8, !tbaa !27
  %44 = sext i32 %0 to i64
  %45 = getelementptr inbounds i32, ptr %.val.i.i, i64 %44
  store i32 %1, ptr %45, align 4, !tbaa !33
  %46 = getelementptr inbounds nuw i8, ptr %.0.val, i64 96
  %47 = getelementptr inbounds nuw i8, ptr %.0.val, i64 100
  %48 = load i32, ptr %47, align 4, !tbaa !28
  %49 = load i32, ptr %46, align 8, !tbaa !26
  %50 = icmp eq i32 %48, %49
  br i1 %50, label %51, label %.Vec_IntGrow.exit10_crit_edge.i.i

.Vec_IntGrow.exit10_crit_edge.i.i:                ; preds = %Vec_IntSetEntry.exit.i
  %.phi.trans.insert.i.i = getelementptr inbounds nuw i8, ptr %.0.val, i64 104
  %.pre.i4.i = load ptr, ptr %.phi.trans.insert.i.i, align 8, !tbaa !27
  br label %Cba_ManSetMap2.exit

51:                                               ; preds = %Vec_IntSetEntry.exit.i
  %52 = icmp slt i32 %48, 16
  br i1 %52, label %53, label %61

53:                                               ; preds = %51
  %54 = getelementptr inbounds nuw i8, ptr %.0.val, i64 104
  %55 = load ptr, ptr %54, align 8, !tbaa !27
  %.not9.i.i.i = icmp eq ptr %55, null
  br i1 %.not9.i.i.i, label %58, label %56

56:                                               ; preds = %53
  %57 = tail call dereferenceable_or_null(64) ptr @realloc(ptr noundef nonnull %55, i64 noundef 64) #22
  br label %Vec_IntGrow.exit.i.i

58:                                               ; preds = %53
  %59 = tail call noalias dereferenceable_or_null(64) ptr @malloc(i64 noundef 64) #20
  br label %Vec_IntGrow.exit.i.i

Vec_IntGrow.exit.i.i:                             ; preds = %58, %56
  %60 = phi ptr [ %57, %56 ], [ %59, %58 ]
  store ptr %60, ptr %54, align 8, !tbaa !27
  store i32 16, ptr %46, align 8, !tbaa !26
  br label %Cba_ManSetMap2.exit

61:                                               ; preds = %51
  %62 = shl nuw nsw i32 %48, 1
  %63 = getelementptr inbounds nuw i8, ptr %.0.val, i64 104
  %64 = load ptr, ptr %63, align 8, !tbaa !27
  %.not9.i9.i.i = icmp eq ptr %64, null
  %65 = zext nneg i32 %62 to i64
  %66 = shl nuw nsw i64 %65, 2
  br i1 %.not9.i9.i.i, label %69, label %67

67:                                               ; preds = %61
  %68 = tail call ptr @realloc(ptr noundef nonnull %64, i64 noundef %66) #22
  br label %71

69:                                               ; preds = %61
  %70 = tail call noalias ptr @malloc(i64 noundef %66) #20
  br label %71

71:                                               ; preds = %69, %67
  %72 = phi ptr [ %68, %67 ], [ %70, %69 ]
  store ptr %72, ptr %63, align 8, !tbaa !27
  store i32 %62, ptr %46, align 8, !tbaa !26
  br label %Cba_ManSetMap2.exit

Cba_ManSetMap2.exit:                              ; preds = %.Vec_IntGrow.exit10_crit_edge.i.i, %Vec_IntGrow.exit.i.i, %71
  %73 = phi ptr [ %.pre.i4.i, %.Vec_IntGrow.exit10_crit_edge.i.i ], [ %72, %71 ], [ %60, %Vec_IntGrow.exit.i.i ]
  %74 = load i32, ptr %47, align 4, !tbaa !28
  %75 = add nsw i32 %74, 1
  store i32 %75, ptr %47, align 4, !tbaa !28
  %76 = sext i32 %74 to i64
  %77 = getelementptr inbounds i32, ptr %73, i64 %76
  store i32 %0, ptr %77, align 4, !tbaa !33
  ret void
}